; ModuleID = '1/2000.c'
source_filename = "1/2000.c"
target datalayout = "e-m:e-p270:32:32-p271:32:32-p272:64:64-i64:64-f80:128-n8:16:32:64-S128"
target triple = "x86_64-pc-linux-gnu"

@.str = private unnamed_addr constant [3 x i8] c"%d\00", align 1
@.str.1 = private unnamed_addr constant [4 x i8] c"%d\0A\00", align 1

; Function Attrs: noinline nounwind uwtable
define dso_local i32 @kind(i32 %0, i32 %1) #0 {
  %3 = alloca i32, align 4
  %4 = alloca i32, align 4
  %5 = alloca i32, align 4
  %6 = alloca i32, align 4
  %7 = alloca i32, align 4
  %8 = alloca i32, align 4
  store i32 %0, i32* %3, align 4
  store i32 %1, i32* %4, align 4
  store i32 0, i32* %7, align 4
  %9 = load i32, i32* %4, align 4
  store i32 %9, i32* %5, align 4
  br label %10

10:                                               ; preds = %59, %2
  %11 = load i32, i32* %5, align 4
  %12 = load i32, i32* %3, align 4
  %13 = icmp slt i32 %11, %12
  br i1 %13, label %14, label %62

14:                                               ; preds = %10
  %15 = load i32, i32* %5, align 4
  %16 = load i32, i32* %3, align 4
  %17 = load i32, i32* %5, align 4
  %18 = sdiv i32 %16, %17
  %19 = icmp sle i32 %15, %18
  br i1 %19, label %20, label %58

20:                                               ; preds = %14
  %21 = load i32, i32* %3, align 4
  %22 = load i32, i32* %5, align 4
  %23 = srem i32 %21, %22
  %24 = icmp eq i32 %23, 0
  br i1 %24, label %25, label %58

25:                                               ; preds = %20
  %26 = load i32, i32* %3, align 4
  %27 = load i32, i32* %5, align 4
  %28 = sdiv i32 %26, %27
  store i32 %28, i32* %8, align 4
  %29 = load i32, i32* %7, align 4
  %30 = add nsw i32 %29, 1
  store i32 %30, i32* %7, align 4
  %31 = load i32, i32* %5, align 4
  store i32 %31, i32* %6, align 4
  br label %32

32:                                               ; preds = %54, %25
  %33 = load i32, i32* %6, align 4
  %34 = load i32, i32* %8, align 4
  %35 = icmp slt i32 %33, %34
  br i1 %35, label %36, label %57

36:                                               ; preds = %32
  %37 = load i32, i32* %6, align 4
  %38 = load i32, i32* %8, align 4
  %39 = load i32, i32* %6, align 4
  %40 = sdiv i32 %38, %39
  %41 = icmp sle i32 %37, %40
  br i1 %41, label %42, label %53

42:                                               ; preds = %36
  %43 = load i32, i32* %8, align 4
  %44 = load i32, i32* %6, align 4
  %45 = srem i32 %43, %44
  %46 = icmp eq i32 %45, 0
  br i1 %46, label %47, label %53

47:                                               ; preds = %42
  %48 = load i32, i32* %7, align 4
  %49 = load i32, i32* %8, align 4
  %50 = load i32, i32* %6, align 4
  %51 = call i32 @kind(i32 %49, i32 %50)
  %52 = add nsw i32 %48, %51
  store i32 %52, i32* %7, align 4
  br label %57

53:                                               ; preds = %42, %36
  br label %54

54:                                               ; preds = %53
  %55 = load i32, i32* %6, align 4
  %56 = add nsw i32 %55, 1
  store i32 %56, i32* %6, align 4
  br label %32

57:                                               ; preds = %47, %32
  br label %58

58:                                               ; preds = %57, %20, %14
  br label %59

59:                                               ; preds = %58
  %60 = load i32, i32* %5, align 4
  %61 = add nsw i32 %60, 1
  store i32 %61, i32* %5, align 4
  br label %10

62:                                               ; preds = %10
  %63 = load i32, i32* %7, align 4
  ret i32 %63
}

; Function Attrs: noinline nounwind uwtable
define dso_local i32 @main() #0 {
  %1 = alloca i32, align 4
  %2 = alloca i32, align 4
  %3 = alloca i32, align 4
  %4 = alloca i32, align 4
  %5 = alloca [32768 x [2 x i32]], align 16
  store i32 0, i32* %1, align 4
  %6 = call i32 (i8*, ...) @__isoc99_scanf(i8* getelementptr inbounds ([3 x i8], [3 x i8]* @.str, i64 0, i64 0), i32* %2)
  store i32 0, i32* %3, align 4
  br label %7

7:                                                ; preds = %27, %0
  %8 = load i32, i32* %3, align 4
  %9 = load i32, i32* %2, align 4
  %10 = icmp slt i32 %8, %9
  br i1 %10, label %11, label %30

11:                                               ; preds = %7
  %12 = load i32, i32* %3, align 4
  %13 = sext i32 %12 to i64
  %14 = getelementptr inbounds [32768 x [2 x i32]], [32768 x [2 x i32]]* %5, i64 0, i64 %13
  %15 = getelementptr inbounds [2 x i32], [2 x i32]* %14, i64 0, i64 0
  %16 = call i32 (i8*, ...) @__isoc99_scanf(i8* getelementptr inbounds ([3 x i8], [3 x i8]* @.str, i64 0, i64 0), i32* %15)
  %17 = load i32, i32* %3, align 4
  %18 = sext i32 %17 to i64
  %19 = getelementptr inbounds [32768 x [2 x i32]], [32768 x [2 x i32]]* %5, i64 0, i64 %18
  %20 = getelementptr inbounds [2 x i32], [2 x i32]* %19, i64 0, i64 0
  %21 = load i32, i32* %20, align 8
  %22 = call i32 @kind(i32 %21, i32 2)
  %23 = load i32, i32* %3, align 4
  %24 = sext i32 %23 to i64
  %25 = getelementptr inbounds [32768 x [2 x i32]], [32768 x [2 x i32]]* %5, i64 0, i64 %24
  %26 = getelementptr inbounds [2 x i32], [2 x i32]* %25, i64 0, i64 1
  store i32 %22, i32* %26, align 4
  br label %27

27:                                               ; preds = %11
  %28 = load i32, i32* %3, align 4
  %29 = add nsw i32 %28, 1
  store i32 %29, i32* %3, align 4
  br label %7

30:                                               ; preds = %7
  store i32 0, i32* %3, align 4
  br label %31

31:                                               ; preds = %43, %30
  %32 = load i32, i32* %3, align 4
  %33 = load i32, i32* %2, align 4
  %34 = icmp slt i32 %32, %33
  br i1 %34, label %35, label %46

35:                                               ; preds = %31
  %36 = load i32, i32* %3, align 4
  %37 = sext i32 %36 to i64
  %38 = getelementptr inbounds [32768 x [2 x i32]], [32768 x [2 x i32]]* %5, i64 0, i64 %37
  %39 = getelementptr inbounds [2 x i32], [2 x i32]* %38, i64 0, i64 1
  %40 = load i32, i32* %39, align 4
  %41 = add nsw i32 %40, 1
  %42 = call i32 (i8*, ...) @printf(i8* getelementptr inbounds ([4 x i8], [4 x i8]* @.str.1, i64 0, i64 0), i32 %41)
  br label %43

43:                                               ; preds = %35
  %44 = load i32, i32* %3, align 4
  %45 = add nsw i32 %44, 1
  store i32 %45, i32* %3, align 4
  br label %31

46:                                               ; preds = %31
  ret i32 0
}

declare dso_local i32 @__isoc99_scanf(i8*, ...) #1

declare dso_local i32 @printf(i8*, ...) #1


!llvm.module.flags = !{!0}
!llvm.ident = !{!1}

!0 = !{i32 1, !"wchar_size", i32 4}
!1 = !{!"clang version 10.0.0-4ubuntu1 "}
